; Function Attrs: nounwind sspstrong uwtable
define internal range(i64 1, -7) i64 @enumerator_initialize(i32 noundef %0, ptr noundef readonly captures(none) %1, i64 noundef returned %2) #0 {
  %4 = tail call i64 @rb_block_proc() #18
  %5 = load i64, ptr @rb_cGenerator, align 8, !tbaa !7
  %6 = tail call i64 @rb_data_typed_object_zalloc(i64 noundef %5, i64 noundef 16, ptr noundef nonnull @generator_data_type) #18
  %7 = inttoptr i64 %6 to ptr
  %8 = getelementptr inbounds nuw i8, ptr %7, i64 24
  %9 = load i64, ptr %8, align 8, !tbaa !11
  %10 = and i64 %9, 2
  %.not.i.i = icmp eq i64 %10, 0
  %11 = getelementptr i8, ptr %7, i64 32
  br i1 %.not.i.i, label %12, label %generator_allocate.exit

12:                                               ; preds = %3
  %13 = load ptr, ptr %11, align 8, !tbaa !16
  br label %generator_allocate.exit

generator_allocate.exit:                          ; preds = %3, %12
  %14 = phi ptr [ %13, %12 ], [ %11, %3 ]
  store i64 36, ptr %14, align 8, !tbaa !37
  %15 = tail call fastcc i64 @generator_init(i64 noundef %6, i64 noundef %4)
  %or.cond.i = icmp ugt i32 %0, 1
  br i1 %or.cond.i, label %16, label %rb_check_arity.exit

16:                                               ; preds = %generator_allocate.exit
  tail call void @rb_error_arity(i32 noundef %0, i32 noundef 0, i32 noundef 1) #19
  unreachable

rb_check_arity.exit:                              ; preds = %generator_allocate.exit
  %.not = icmp eq i32 %0, 0
  br i1 %.not, label %convert_to_feasible_size_value.exit, label %17

17:                                               ; preds = %rb_check_arity.exit
  %18 = load i64, ptr %1, align 8, !tbaa !7
  %19 = icmp eq i64 %18, 4
  br i1 %19, label %convert_to_feasible_size_value.exit, label %20

20:                                               ; preds = %17
  %21 = tail call i32 @rb_respond_to(i64 noundef %18, i64 noundef 3457) #18
  %.not.i = icmp eq i32 %21, 0
  br i1 %.not.i, label %22, label %convert_to_feasible_size_value.exit

22:                                               ; preds = %20
  %23 = and i64 %18, 3
  %24 = icmp eq i64 %23, 2
  br i1 %24, label %34, label %25

25:                                               ; preds = %22
  %26 = icmp eq i64 %18, 0
  %27 = and i64 %18, 7
  %28 = icmp ne i64 %27, 0
  %29 = or i1 %26, %28
  br i1 %29, label %RB_FLOAT_TYPE_P.exit.thread11.i, label %RB_FLOAT_TYPE_P.exit.i

RB_FLOAT_TYPE_P.exit.i:                           ; preds = %25
  %30 = inttoptr i64 %18 to ptr
  %31 = load i64, ptr %30, align 8, !tbaa !21
  %32 = and i64 %31, 31
  %33 = icmp eq i64 %32, 4
  br i1 %33, label %41, label %RB_FLOAT_TYPE_P.exit.thread11.i

34:                                               ; preds = %22
  %.not.i.i.i = icmp eq i64 %18, -9223372036854775806
  br i1 %.not.i.i.i, label %RB_FLOAT_TYPE_P.exit.thread11.i, label %35

35:                                               ; preds = %34
  %.neg.i.i.i = ashr i64 %18, 63
  %36 = add nsw i64 %.neg.i.i.i, 2
  %37 = and i64 %18, -4
  %38 = or i64 %36, %37
  %39 = tail call noundef i64 @llvm.fshl.i64(i64 range(i64 1, 0) %38, i64 range(i64 1, 0) %38, i64 61)
  %40 = bitcast i64 %39 to double
  br label %rb_float_value_inline.exit.i

41:                                               ; preds = %RB_FLOAT_TYPE_P.exit.i
  %42 = getelementptr inbounds nuw i8, ptr %30, i64 16
  %43 = load double, ptr %42, align 8, !tbaa !39
  br label %rb_float_value_inline.exit.i

rb_float_value_inline.exit.i:                     ; preds = %41, %35
  %.0.i9.i = phi double [ %43, %41 ], [ %40, %35 ]
  %44 = fcmp oeq double %.0.i9.i, 0x7FF0000000000000
  br i1 %44, label %convert_to_feasible_size_value.exit, label %RB_FLOAT_TYPE_P.exit.thread11.i

RB_FLOAT_TYPE_P.exit.thread11.i:                  ; preds = %rb_float_value_inline.exit.i, %34, %RB_FLOAT_TYPE_P.exit.i, %25
  %45 = tail call i64 @rb_to_int(i64 noundef %18) #18
  br label %convert_to_feasible_size_value.exit

convert_to_feasible_size_value.exit:              ; preds = %rb_check_arity.exit, %17, %20, %rb_float_value_inline.exit.i, %RB_FLOAT_TYPE_P.exit.thread11.i
  %.0.i = phi i64 [ %45, %RB_FLOAT_TYPE_P.exit.thread11.i ], [ 4, %17 ], [ %18, %20 ], [ %18, %rb_float_value_inline.exit.i ], [ 4, %rb_check_arity.exit ]
  %46 = load i64, ptr @sym_each, align 8, !tbaa !7
  %47 = tail call fastcc i64 @enumerator_init(i64 noundef %2, i64 noundef %6, i64 noundef %46, i32 noundef 0, ptr noundef null, ptr noundef null, i64 noundef %.0.i, i32 noundef 0)
  ret i64 %2
}